; Function Attrs: nounwind uwtable
define hidden range(i32 0, 2) i32 @uv__iou_fs_ftruncate(ptr noundef %0, ptr noundef %1) local_unnamed_addr #0 {
  %3 = tail call i32 @uv__kernel_version()
  %4 = icmp ult i32 %3, 395520
  br i1 %4, label %uv__iou_submit.exit, label %5

5:                                                ; preds = %2
  %6 = getelementptr inbounds nuw i8, ptr %0, i64 40
  %7 = load ptr, ptr %6, align 8
  %8 = getelementptr inbounds nuw i8, ptr %7, i64 320
  %9 = tail call fastcc ptr @uv__iou_get_sqe(ptr noundef nonnull %8, ptr noundef %0, ptr noundef %1)
  %10 = icmp eq ptr %9, null
  br i1 %10, label %uv__iou_submit.exit, label %11

11:                                               ; preds = %5
  %12 = getelementptr inbounds nuw i8, ptr %1, i64 280
  %13 = load i32, ptr %12, align 8
  %14 = getelementptr inbounds nuw i8, ptr %9, i64 4
  store i32 %13, ptr %14, align 4
  %15 = getelementptr inbounds nuw i8, ptr %1, i64 304
  %16 = load i64, ptr %15, align 8
  %17 = trunc i64 %16 to i32
  %18 = getelementptr inbounds nuw i8, ptr %9, i64 24
  store i32 %17, ptr %18, align 8
  store i8 55, ptr %9, align 8
  %19 = getelementptr inbounds nuw i8, ptr %7, i64 328
  %20 = load ptr, ptr %19, align 8
  %21 = load i32, ptr %20, align 4
  %22 = add i32 %21, 1
  store atomic i32 %22, ptr %20 release, align 4
  %23 = getelementptr inbounds nuw i8, ptr %7, i64 344
  %24 = load ptr, ptr %23, align 8
  %25 = load atomic i32, ptr %24 acquire, align 4
  %26 = and i32 %25, 1
  %.not.i = icmp eq i32 %26, 0
  br i1 %.not.i, label %uv__iou_submit.exit, label %27

27:                                               ; preds = %11
  %28 = getelementptr inbounds nuw i8, ptr %7, i64 432
  %29 = load i32, ptr %28, align 8
  %30 = tail call i64 (i64, ...) @syscall(i64 noundef 426, i32 noundef %29, i32 noundef 0, i32 noundef 0, i32 noundef 2, ptr noundef null, i64 noundef 0) #17
  %31 = and i64 %30, 4294967295
  %.not6.i = icmp eq i64 %31, 0
  br i1 %.not6.i, label %uv__iou_submit.exit, label %32

32:                                               ; preds = %27
  %33 = tail call ptr @__errno_location() #19
  %34 = load i32, ptr %33, align 4
  %.not7.i = icmp eq i32 %34, 130
  br i1 %.not7.i, label %uv__iou_submit.exit, label %35

35:                                               ; preds = %32
  tail call void @perror(ptr noundef nonnull @.str.25) #21
  br label %uv__iou_submit.exit

uv__iou_submit.exit:                              ; preds = %35, %32, %27, %11, %5, %2
  %.0 = phi i32 [ 0, %2 ], [ 0, %5 ], [ 1, %11 ], [ 1, %27 ], [ 1, %32 ], [ 1, %35 ]
  ret i32 %.0
}